target datalayout = "e-m:e-p270:32:32-p271:32:32-p272:64:64-i64:64-i128:128-f80:128-n8:16:32:64-S128"
target triple = "x86_64-pc-linux-gnu"

%struct.pmix_list_t = type { %struct.pmix_object_t, %struct.pmix_list_item_t, i64 }
%struct.pmix_object_t = type { %union.pthread_mutex_t, ptr, i32, %struct.pmix_tma }
%union.pthread_mutex_t = type { %struct.__pthread_mutex_s }
%struct.__pthread_mutex_s = type { i32, i32, i32, i32, i32, i16, i16, %struct.__pthread_internal_list }
%struct.__pthread_internal_list = type { ptr, ptr }
%struct.pmix_tma = type { ptr, ptr, ptr, ptr, ptr, ptr, ptr, ptr }
%struct.pmix_list_item_t = type { %struct.pmix_object_t, ptr, ptr, i32 }
%struct.prte_node_t = type { %struct.pmix_list_item_t, i32, ptr, ptr, ptr, ptr, ptr, ptr, i16, ptr, i16, i8, i32, i32, i32, i32, ptr, i8, %struct.pmix_list_t }
%struct.pmix_pointer_array_t = type { %struct.pmix_object_t, i32, i32, i32, i32, i32, ptr, ptr }

@prte_node_pool = external global ptr, align 8
@prte_node_topologies = external global ptr, align 8
@.str.17 = private unnamed_addr constant [4 x i8] c"N/A\00", align 1

; Function Attrs: inlinehint nounwind uwtable
define internal ptr @pmix_pointer_array_get_item(ptr noundef %0, i32 noundef %1) #4 {
  %3 = alloca ptr, align 8
  %4 = alloca ptr, align 8
  %5 = alloca i32, align 4
  %6 = alloca ptr, align 8
  %7 = alloca i32, align 4
  store ptr %0, ptr %4, align 8, !tbaa !30
  store i32 %1, ptr %5, align 4, !tbaa !29
  call void @llvm.lifetime.start.p0(i64 8, ptr %6) #12
  %8 = load i32, ptr %5, align 4, !tbaa !29
  %9 = icmp sgt i32 0, %8
  br i1 %9, label %16, label %10

10:                                               ; preds = %2
  %11 = load ptr, ptr %4, align 8, !tbaa !30
  %12 = getelementptr inbounds nuw %struct.pmix_pointer_array_t, ptr %11, i32 0, i32 3
  %13 = load i32, ptr %12, align 8, !tbaa !31
  %14 = load i32, ptr %5, align 4, !tbaa !29
  %15 = icmp sle i32 %13, %14
  br label %16

16:                                               ; preds = %10, %2
  %17 = phi i1 [ true, %2 ], [ %15, %10 ]
  %18 = xor i1 %17, true
  %19 = xor i1 %18, true
  %20 = zext i1 %19 to i32
  %21 = sext i32 %20 to i64
  %22 = call i64 @llvm.expect.i64(i64 %21, i64 0)
  %23 = icmp ne i64 %22, 0
  br i1 %23, label %24, label %25

24:                                               ; preds = %16
  store ptr null, ptr %3, align 8
  store i32 1, ptr %7, align 4
  br label %34

25:                                               ; preds = %16
  %26 = load ptr, ptr %4, align 8, !tbaa !30
  %27 = getelementptr inbounds nuw %struct.pmix_pointer_array_t, ptr %26, i32 0, i32 7
  %28 = load ptr, ptr %27, align 8, !tbaa !42
  %29 = load i32, ptr %5, align 4, !tbaa !29
  %30 = sext i32 %29 to i64
  %31 = getelementptr inbounds ptr, ptr %28, i64 %30
  %32 = load ptr, ptr %31, align 8, !tbaa !3
  store ptr %32, ptr %6, align 8, !tbaa !3
  %33 = load ptr, ptr %6, align 8, !tbaa !3
  store ptr %33, ptr %3, align 8
  store i32 1, ptr %7, align 4
  br label %34

34:                                               ; preds = %25, %24
  call void @llvm.lifetime.end.p0(i64 8, ptr %6) #12
  %35 = load ptr, ptr %3, align 8
  ret ptr %35
}

; Function Attrs: nounwind uwtable
define void @prte_ras_base_display_cpus(ptr noundef %0, ptr noundef %1) #0 {
  %3 = alloca ptr, align 8
  %4 = alloca ptr, align 8
  %5 = alloca ptr, align 8
  %6 = alloca i32, align 4
  %7 = alloca i32, align 4
  %8 = alloca i32, align 4
  %9 = alloca ptr, align 8
  %10 = alloca ptr, align 8
  %11 = alloca i8, align 1
  %12 = alloca i32, align 4
  store ptr %0, ptr %3, align 8, !tbaa !3
  store ptr %1, ptr %4, align 8, !tbaa !24
  call void @llvm.lifetime.start.p0(i64 8, ptr %5) #12
  store ptr null, ptr %5, align 8, !tbaa !7
  call void @llvm.lifetime.start.p0(i64 4, ptr %6) #12
  call void @llvm.lifetime.start.p0(i64 4, ptr %7) #12
  call void @llvm.lifetime.start.p0(i64 4, ptr %8) #12
  call void @llvm.lifetime.start.p0(i64 8, ptr %9) #12
  call void @llvm.lifetime.start.p0(i64 8, ptr %10) #12
  call void @llvm.lifetime.start.p0(i64 1, ptr %11) #12
  %13 = load ptr, ptr %4, align 8, !tbaa !24
  %14 = icmp eq ptr null, %13
  br i1 %14, label %15, label %36

15:                                               ; preds = %2
  store i32 0, ptr %6, align 4, !tbaa !29
  br label %16

16:                                               ; preds = %32, %15
  %17 = load i32, ptr %6, align 4, !tbaa !29
  %18 = load ptr, ptr @prte_node_topologies, align 8, !tbaa !30
  %19 = getelementptr inbounds nuw %struct.pmix_pointer_array_t, ptr %18, i32 0, i32 3
  %20 = load i32, ptr %19, align 8, !tbaa !31
  %21 = icmp slt i32 %17, %20
  br i1 %21, label %22, label %35

22:                                               ; preds = %16
  %23 = load ptr, ptr @prte_node_topologies, align 8, !tbaa !30
  %24 = load i32, ptr %6, align 4, !tbaa !29
  %25 = call ptr @pmix_pointer_array_get_item(ptr noundef %23, i32 noundef %24)
  store ptr %25, ptr %9, align 8, !tbaa !3
  %26 = load ptr, ptr %9, align 8, !tbaa !3
  %27 = icmp ne ptr null, %26
  br i1 %27, label %28, label %31

28:                                               ; preds = %22
  %29 = load ptr, ptr %9, align 8, !tbaa !3
  %30 = load ptr, ptr %3, align 8, !tbaa !3
  call void @display_cpus(ptr noundef %29, ptr noundef %30, ptr noundef @.str.17)
  br label %31

31:                                               ; preds = %28, %22
  br label %32

32:                                               ; preds = %31
  %33 = load i32, ptr %6, align 4, !tbaa !29
  %34 = add nsw i32 %33, 1
  store i32 %34, ptr %6, align 4, !tbaa !29
  br label %16, !llvm.loop !43

35:                                               ; preds = %16
  store i32 1, ptr %12, align 4
  br label %142

36:                                               ; preds = %2
  %37 = load ptr, ptr %4, align 8, !tbaa !24
  %38 = call ptr @PMIx_Argv_split(ptr noundef %37, i32 noundef 59)
  store ptr %38, ptr %5, align 8, !tbaa !7
  store i32 0, ptr %7, align 4, !tbaa !29
  br label %39

39:                                               ; preds = %137, %36
  %40 = load ptr, ptr %5, align 8, !tbaa !7
  %41 = load i32, ptr %7, align 4, !tbaa !29
  %42 = sext i32 %41 to i64
  %43 = getelementptr inbounds ptr, ptr %40, i64 %42
  %44 = load ptr, ptr %43, align 8, !tbaa !24
  %45 = icmp ne ptr null, %44
  br i1 %45, label %46, label %140

46:                                               ; preds = %39
  store i8 0, ptr %11, align 1, !tbaa !25
  store i32 0, ptr %6, align 4, !tbaa !29
  br label %47

47:                                               ; preds = %133, %46
  %48 = load i32, ptr %6, align 4, !tbaa !29
  %49 = load ptr, ptr @prte_node_pool, align 8, !tbaa !30
  %50 = getelementptr inbounds nuw %struct.pmix_pointer_array_t, ptr %49, i32 0, i32 3
  %51 = load i32, ptr %50, align 8, !tbaa !31
  %52 = icmp slt i32 %48, %51
  br i1 %52, label %53, label %57

53:                                               ; preds = %47
  %54 = load i8, ptr %11, align 1, !tbaa !25, !range !27, !noundef !28
  %55 = trunc i8 %54 to i1
  %56 = xor i1 %55, true
  br label %57

57:                                               ; preds = %53, %47
  %58 = phi i1 [ false, %47 ], [ %56, %53 ]
  br i1 %58, label %59, label %136

59:                                               ; preds = %57
  %60 = load ptr, ptr @prte_node_pool, align 8, !tbaa !30
  %61 = load i32, ptr %6, align 4, !tbaa !29
  %62 = call ptr @pmix_pointer_array_get_item(ptr noundef %60, i32 noundef %61)
  store ptr %62, ptr %10, align 8, !tbaa !3
  %63 = load ptr, ptr %10, align 8, !tbaa !3
  %64 = icmp eq ptr null, %63
  br i1 %64, label %65, label %66

65:                                               ; preds = %59
  br label %133

66:                                               ; preds = %59
  %67 = load ptr, ptr %10, align 8, !tbaa !3
  %68 = getelementptr inbounds nuw %struct.prte_node_t, ptr %67, i32 0, i32 2
  %69 = load ptr, ptr %68, align 8, !tbaa !34
  %70 = load ptr, ptr %5, align 8, !tbaa !7
  %71 = load i32, ptr %7, align 4, !tbaa !29
  %72 = sext i32 %71 to i64
  %73 = getelementptr inbounds ptr, ptr %70, i64 %72
  %74 = load ptr, ptr %73, align 8, !tbaa !24
  %75 = call i32 @strcmp(ptr noundef %69, ptr noundef %74) #13
  %76 = icmp eq i32 0, %75
  br i1 %76, label %77, label %87

77:                                               ; preds = %66
  %78 = load ptr, ptr %10, align 8, !tbaa !3
  %79 = getelementptr inbounds nuw %struct.prte_node_t, ptr %78, i32 0, i32 16
  %80 = load ptr, ptr %79, align 8, !tbaa !44
  %81 = load ptr, ptr %3, align 8, !tbaa !3
  %82 = load ptr, ptr %5, align 8, !tbaa !7
  %83 = load i32, ptr %7, align 4, !tbaa !29
  %84 = sext i32 %83 to i64
  %85 = getelementptr inbounds ptr, ptr %82, i64 %84
  %86 = load ptr, ptr %85, align 8, !tbaa !24
  call void @display_cpus(ptr noundef %80, ptr noundef %81, ptr noundef %86)
  store i8 1, ptr %11, align 1, !tbaa !25
  br label %136

87:                                               ; preds = %66
  %88 = load ptr, ptr %10, align 8, !tbaa !3
  %89 = getelementptr inbounds nuw %struct.prte_node_t, ptr %88, i32 0, i32 4
  %90 = load ptr, ptr %89, align 8, !tbaa !38
  %91 = icmp eq ptr null, %90
  br i1 %91, label %92, label %93

92:                                               ; preds = %87
  br label %133

93:                                               ; preds = %87
  store i32 0, ptr %8, align 4, !tbaa !29
  br label %94

94:                                               ; preds = %129, %93
  %95 = load ptr, ptr %10, align 8, !tbaa !3
  %96 = getelementptr inbounds nuw %struct.prte_node_t, ptr %95, i32 0, i32 4
  %97 = load ptr, ptr %96, align 8, !tbaa !38
  %98 = load i32, ptr %8, align 4, !tbaa !29
  %99 = sext i32 %98 to i64
  %100 = getelementptr inbounds ptr, ptr %97, i64 %99
  %101 = load ptr, ptr %100, align 8, !tbaa !24
  %102 = icmp ne ptr null, %101
  br i1 %102, label %103, label %132

103:                                              ; preds = %94
  %104 = load ptr, ptr %5, align 8, !tbaa !7
  %105 = load i32, ptr %7, align 4, !tbaa !29
  %106 = sext i32 %105 to i64
  %107 = getelementptr inbounds ptr, ptr %104, i64 %106
  %108 = load ptr, ptr %107, align 8, !tbaa !24
  %109 = load ptr, ptr %10, align 8, !tbaa !3
  %110 = getelementptr inbounds nuw %struct.prte_node_t, ptr %109, i32 0, i32 4
  %111 = load ptr, ptr %110, align 8, !tbaa !38
  %112 = load i32, ptr %8, align 4, !tbaa !29
  %113 = sext i32 %112 to i64
  %114 = getelementptr inbounds ptr, ptr %111, i64 %113
  %115 = load ptr, ptr %114, align 8, !tbaa !24
  %116 = call i32 @strcmp(ptr noundef %108, ptr noundef %115) #13
  %117 = icmp eq i32 0, %116
  br i1 %117, label %118, label %128

118:                                              ; preds = %103
  %119 = load ptr, ptr %10, align 8, !tbaa !3
  %120 = getelementptr inbounds nuw %struct.prte_node_t, ptr %119, i32 0, i32 16
  %121 = load ptr, ptr %120, align 8, !tbaa !44
  %122 = load ptr, ptr %3, align 8, !tbaa !3
  %123 = load ptr, ptr %5, align 8, !tbaa !7
  %124 = load i32, ptr %7, align 4, !tbaa !29
  %125 = sext i32 %124 to i64
  %126 = getelementptr inbounds ptr, ptr %123, i64 %125
  %127 = load ptr, ptr %126, align 8, !tbaa !24
  call void @display_cpus(ptr noundef %121, ptr noundef %122, ptr noundef %127)
  store i8 1, ptr %11, align 1, !tbaa !25
  br label %132

128:                                              ; preds = %103
  br label %129

129:                                              ; preds = %128
  %130 = load i32, ptr %8, align 4, !tbaa !29
  %131 = add nsw i32 %130, 1
  store i32 %131, ptr %8, align 4, !tbaa !29
  br label %94, !llvm.loop !45

132:                                              ; preds = %118, %94
  br label %133

133:                                              ; preds = %132, %92, %65
  %134 = load i32, ptr %6, align 4, !tbaa !29
  %135 = add nsw i32 %134, 1
  store i32 %135, ptr %6, align 4, !tbaa !29
  br label %47, !llvm.loop !46

136:                                              ; preds = %77, %57
  br label %137

137:                                              ; preds = %136
  %138 = load i32, ptr %7, align 4, !tbaa !29
  %139 = add nsw i32 %138, 1
  store i32 %139, ptr %7, align 4, !tbaa !29
  br label %39, !llvm.loop !47

140:                                              ; preds = %39
  %141 = load ptr, ptr %5, align 8, !tbaa !7
  call void @PMIx_Argv_free(ptr noundef %141)
  store i32 0, ptr %12, align 4
  br label %142

142:                                              ; preds = %140, %35
  call void @llvm.lifetime.end.p0(i64 1, ptr %11) #12
  call void @llvm.lifetime.end.p0(i64 8, ptr %10) #12
  call void @llvm.lifetime.end.p0(i64 8, ptr %9) #12
  call void @llvm.lifetime.end.p0(i64 4, ptr %8) #12
  call void @llvm.lifetime.end.p0(i64 4, ptr %7) #12
  call void @llvm.lifetime.end.p0(i64 4, ptr %6) #12
  call void @llvm.lifetime.end.p0(i64 8, ptr %5) #12
  %143 = load i32, ptr %12, align 4
  switch i32 %143, label %145 [
    i32 0, label %144
    i32 1, label %144
  ]

144:                                              ; preds = %142, %142
  ret void

145:                                              ; preds = %142
  unreachable
}