; Function Attrs: nounwind uwtable
define void @prte_ras_base_display_cpus(ptr noundef %0, ptr noundef %1) local_unnamed_addr #0 {
  %3 = icmp eq ptr %1, null
  br i1 %3, label %.preheader, label %20

.preheader:                                       ; preds = %2
  %4 = load ptr, ptr @prte_node_topologies, align 8, !tbaa !28
  %5 = getelementptr inbounds nuw i8, ptr %4, i64 128
  %6 = load i32, ptr %5, align 8, !tbaa !29
  %7 = icmp sgt i32 %6, 0
  br i1 %7, label %pmix_pointer_array_get_item.exit, label %.loopexit

pmix_pointer_array_get_item.exit:                 ; preds = %.preheader, %14
  %8 = phi ptr [ %15, %14 ], [ %4, %.preheader ]
  %indvars.iv74 = phi i64 [ %indvars.iv.next75, %14 ], [ 0, %.preheader ]
  %9 = getelementptr inbounds nuw i8, ptr %8, i64 152
  %10 = load ptr, ptr %9, align 8, !tbaa !32
  %11 = getelementptr inbounds nuw ptr, ptr %10, i64 %indvars.iv74
  %12 = load ptr, ptr %11, align 8, !tbaa !33
  %.not46 = icmp eq ptr %12, null
  br i1 %.not46, label %14, label %13

13:                                               ; preds = %pmix_pointer_array_get_item.exit
  tail call fastcc void @display_cpus(ptr noundef nonnull %12, ptr noundef %0, ptr noundef nonnull @.str.17)
  %.pre79 = load ptr, ptr @prte_node_topologies, align 8, !tbaa !28
  br label %14

14:                                               ; preds = %pmix_pointer_array_get_item.exit, %13
  %15 = phi ptr [ %8, %pmix_pointer_array_get_item.exit ], [ %.pre79, %13 ]
  %indvars.iv.next75 = add nuw nsw i64 %indvars.iv74, 1
  %16 = getelementptr inbounds nuw i8, ptr %15, i64 128
  %17 = load i32, ptr %16, align 8, !tbaa !29
  %18 = sext i32 %17 to i64
  %19 = icmp slt i64 %indvars.iv.next75, %18
  br i1 %19, label %pmix_pointer_array_get_item.exit, label %.loopexit, !llvm.loop !42

20:                                               ; preds = %2
  %21 = tail call ptr @PMIx_Argv_split(ptr noundef nonnull %1, i32 noundef 59) #15
  %22 = load ptr, ptr %21, align 8, !tbaa !23
  %.not59 = icmp eq ptr %22, null
  br i1 %.not59, label %._crit_edge, label %.preheader52.lr.ph

.preheader52.lr.ph:                               ; preds = %20
  %23 = load ptr, ptr @prte_node_pool, align 8, !tbaa !28
  %24 = getelementptr inbounds nuw i8, ptr %23, i64 128
  %25 = load i32, ptr %24, align 8, !tbaa !29
  %26 = icmp slt i32 %25, 1
  br i1 %26, label %._crit_edge, label %.preheader52

.preheader52:                                     ; preds = %.preheader52.lr.ph, %.loopexit53
  %27 = phi ptr [ %61, %.loopexit53 ], [ %23, %.preheader52.lr.ph ]
  %28 = phi ptr [ %62, %.loopexit53 ], [ %23, %.preheader52.lr.ph ]
  %indvars.iv68 = phi i64 [ %indvars.iv.next69, %.loopexit53 ], [ 0, %.preheader52.lr.ph ]
  %29 = getelementptr inbounds nuw ptr, ptr %21, i64 %indvars.iv68
  %30 = getelementptr inbounds nuw i8, ptr %28, i64 128
  %31 = load i32, ptr %30, align 8, !tbaa !29
  %32 = icmp slt i32 %31, 1
  br i1 %32, label %.loopexit53, label %pmix_pointer_array_get_item.exit49.preheader

pmix_pointer_array_get_item.exit49.preheader:     ; preds = %.preheader52
  %33 = getelementptr inbounds nuw i8, ptr %27, i64 128
  br label %pmix_pointer_array_get_item.exit49

pmix_pointer_array_get_item.exit49:               ; preds = %pmix_pointer_array_get_item.exit49.preheader, %.loopexit51
  %indvars.iv66 = phi i64 [ 0, %pmix_pointer_array_get_item.exit49.preheader ], [ %indvars.iv.next67, %.loopexit51 ]
  %34 = phi ptr [ %28, %pmix_pointer_array_get_item.exit49.preheader ], [ %27, %.loopexit51 ]
  %35 = getelementptr inbounds nuw i8, ptr %34, i64 152
  %36 = load ptr, ptr %35, align 8, !tbaa !32
  %37 = getelementptr inbounds nuw ptr, ptr %36, i64 %indvars.iv66
  %38 = load ptr, ptr %37, align 8, !tbaa !33
  %39 = icmp eq ptr %38, null
  br i1 %39, label %.loopexit51, label %40

40:                                               ; preds = %pmix_pointer_array_get_item.exit49
  %41 = getelementptr inbounds nuw i8, ptr %38, i64 152
  %42 = load ptr, ptr %41, align 8, !tbaa !34
  %43 = load ptr, ptr %29, align 8, !tbaa !23
  %44 = tail call i32 @strcmp(ptr noundef nonnull dereferenceable(1) %42, ptr noundef nonnull dereferenceable(1) %43) #16
  %45 = icmp eq i32 %44, 0
  br i1 %45, label %.loopexit53.sink.split, label %46

46:                                               ; preds = %40
  %47 = getelementptr inbounds nuw i8, ptr %38, i64 168
  %48 = load ptr, ptr %47, align 8, !tbaa !40
  %49 = icmp eq ptr %48, null
  br i1 %49, label %.loopexit51, label %.preheader50

.preheader50:                                     ; preds = %46
  %50 = load ptr, ptr %48, align 8, !tbaa !23
  %.not4555 = icmp eq ptr %50, null
  br i1 %.not4555, label %.loopexit51, label %.lr.ph

51:                                               ; preds = %.lr.ph
  %indvars.iv.next = add nuw nsw i64 %indvars.iv, 1
  %52 = getelementptr inbounds nuw ptr, ptr %48, i64 %indvars.iv.next
  %53 = load ptr, ptr %52, align 8, !tbaa !23
  %.not45 = icmp eq ptr %53, null
  br i1 %.not45, label %.loopexit51, label %.lr.ph, !llvm.loop !43

.lr.ph:                                           ; preds = %.preheader50, %51
  %indvars.iv = phi i64 [ %indvars.iv.next, %51 ], [ 0, %.preheader50 ]
  %54 = phi ptr [ %53, %51 ], [ %50, %.preheader50 ]
  %55 = tail call i32 @strcmp(ptr noundef nonnull dereferenceable(1) %43, ptr noundef nonnull dereferenceable(1) %54) #16
  %56 = icmp eq i32 %55, 0
  br i1 %56, label %.loopexit53.sink.split, label %51

.loopexit51:                                      ; preds = %51, %.preheader50, %46, %pmix_pointer_array_get_item.exit49
  %indvars.iv.next67 = add nuw nsw i64 %indvars.iv66, 1
  %57 = load i32, ptr %33, align 8, !tbaa !29
  %58 = sext i32 %57 to i64
  %.not89 = icmp slt i64 %indvars.iv.next67, %58
  br i1 %.not89, label %pmix_pointer_array_get_item.exit49, label %.loopexit53, !llvm.loop !44

.loopexit53.sink.split:                           ; preds = %40, %.lr.ph
  %59 = getelementptr inbounds nuw i8, ptr %38, i64 240
  %60 = load ptr, ptr %59, align 8, !tbaa !45
  tail call fastcc void @display_cpus(ptr noundef %60, ptr noundef %0, ptr noundef nonnull %43)
  %.pre78 = load ptr, ptr @prte_node_pool, align 8, !tbaa !28
  br label %.loopexit53

.loopexit53:                                      ; preds = %.loopexit51, %.loopexit53.sink.split, %.preheader52
  %61 = phi ptr [ %27, %.preheader52 ], [ %.pre78, %.loopexit53.sink.split ], [ %27, %.loopexit51 ]
  %62 = phi ptr [ %28, %.preheader52 ], [ %.pre78, %.loopexit53.sink.split ], [ %27, %.loopexit51 ]
  %indvars.iv.next69 = add nuw nsw i64 %indvars.iv68, 1
  %63 = getelementptr inbounds nuw ptr, ptr %21, i64 %indvars.iv.next69
  %64 = load ptr, ptr %63, align 8, !tbaa !23
  %.not = icmp eq ptr %64, null
  br i1 %.not, label %._crit_edge, label %.preheader52, !llvm.loop !46

._crit_edge:                                      ; preds = %.loopexit53, %.preheader52.lr.ph, %20
  tail call void @PMIx_Argv_free(ptr noundef nonnull %21) #15
  br label %.loopexit

.loopexit:                                        ; preds = %14, %.preheader, %._crit_edge
  ret void
}